target datalayout = "e-m:e-p270:32:32-p271:32:32-p272:64:64-i64:64-i128:128-f80:128-n8:16:32:64-S128"
target triple = "x86_64-unknown-linux-gnu"

%"class.std::shared_ptr" = type { %"class.std::__shared_ptr" }
%"class.std::__shared_ptr" = type { ptr, %"class.std::__shared_count" }
%"class.std::__shared_count" = type { ptr }
%"class.rocksdb::(anonymous namespace)::PosixEnv" = type { %"class.rocksdb::CompositeEnv", %"class.std::vector.6", %union.pthread_mutex_t, %"class.std::vector.11", i8, ptr, ptr, ptr, ptr }
%"class.rocksdb::CompositeEnv" = type { %"class.rocksdb::Env" }
%"class.rocksdb::Env" = type { %"class.rocksdb::Customizable", ptr, %"class.std::shared_ptr", %"class.std::shared_ptr.3" }
%"class.rocksdb::Customizable" = type { %"class.rocksdb::Configurable" }
%"class.rocksdb::Configurable" = type { ptr, %"class.std::vector" }
%"class.std::vector" = type { %"struct.std::_Vector_base" }
%"struct.std::_Vector_base" = type { %"struct.std::_Vector_base<rocksdb::Configurable::RegisteredOptions, std::allocator<rocksdb::Configurable::RegisteredOptions>>::_Vector_impl" }
%"struct.std::_Vector_base<rocksdb::Configurable::RegisteredOptions, std::allocator<rocksdb::Configurable::RegisteredOptions>>::_Vector_impl" = type { %"struct.std::_Vector_base<rocksdb::Configurable::RegisteredOptions, std::allocator<rocksdb::Configurable::RegisteredOptions>>::_Vector_impl_data" }
%"struct.std::_Vector_base<rocksdb::Configurable::RegisteredOptions, std::allocator<rocksdb::Configurable::RegisteredOptions>>::_Vector_impl_data" = type { ptr, ptr, ptr }
%"class.std::shared_ptr.3" = type { %"class.std::__shared_ptr.4" }
%"class.std::__shared_ptr.4" = type { ptr, %"class.std::__shared_count" }
%"class.std::vector.6" = type { %"struct.std::_Vector_base.7" }
%"struct.std::_Vector_base.7" = type { %"struct.std::_Vector_base<rocksdb::ThreadPoolImpl, std::allocator<rocksdb::ThreadPoolImpl>>::_Vector_impl" }
%"struct.std::_Vector_base<rocksdb::ThreadPoolImpl, std::allocator<rocksdb::ThreadPoolImpl>>::_Vector_impl" = type { %"struct.std::_Vector_base<rocksdb::ThreadPoolImpl, std::allocator<rocksdb::ThreadPoolImpl>>::_Vector_impl_data" }
%"struct.std::_Vector_base<rocksdb::ThreadPoolImpl, std::allocator<rocksdb::ThreadPoolImpl>>::_Vector_impl_data" = type { ptr, ptr, ptr }
%union.pthread_mutex_t = type { %struct.__pthread_mutex_s }
%struct.__pthread_mutex_s = type { i32, i32, i32, i32, i32, i16, i16, %struct.__pthread_internal_list }
%struct.__pthread_internal_list = type { ptr, ptr }
%"class.std::vector.11" = type { %"struct.std::_Vector_base.12" }
%"struct.std::_Vector_base.12" = type { %"struct.std::_Vector_base<unsigned long, std::allocator<unsigned long>>::_Vector_impl" }
%"struct.std::_Vector_base<unsigned long, std::allocator<unsigned long>>::_Vector_impl" = type { %"struct.std::_Vector_base<unsigned long, std::allocator<unsigned long>>::_Vector_impl_data" }
%"struct.std::_Vector_base<unsigned long, std::allocator<unsigned long>>::_Vector_impl_data" = type { ptr, ptr, ptr }
%"class.rocksdb::ThreadPoolImpl" = type { %"class.rocksdb::ThreadPool", %"class.std::unique_ptr" }
%"class.rocksdb::ThreadPool" = type { ptr }
%"class.std::unique_ptr" = type { %"struct.std::__uniq_ptr_data" }
%"struct.std::__uniq_ptr_data" = type { %"class.std::__uniq_ptr_impl" }
%"class.std::__uniq_ptr_impl" = type { %"class.std::tuple" }
%"class.std::tuple" = type { %"struct.std::_Tuple_impl" }
%"struct.std::_Tuple_impl" = type { %"struct.std::_Head_base.20" }
%"struct.std::_Head_base.20" = type { ptr }

; Function Attrs: mustprogress nounwind uwtable
define linkonce_odr noundef nonnull align 8 dereferenceable(16) ptr @_ZNSt6vectorIN7rocksdb14ThreadPoolImplESaIS1_EEixEm(ptr noundef nonnull align 8 dereferenceable(24) %this, i64 noundef %__n) #3 comdat align 2 {
entry:
  %this.addr = alloca ptr, align 8
  %__n.addr = alloca i64, align 8
  store ptr %this, ptr %this.addr, align 8
  store i64 %__n, ptr %__n.addr, align 8
  %this1 = load ptr, ptr %this.addr, align 8
  %_M_impl = getelementptr inbounds %"struct.std::_Vector_base.7", ptr %this1, i32 0, i32 0
  %_M_start = getelementptr inbounds %"struct.std::_Vector_base<rocksdb::ThreadPoolImpl, std::allocator<rocksdb::ThreadPoolImpl>>::_Vector_impl_data", ptr %_M_impl, i32 0, i32 0
  %0 = load ptr, ptr %_M_start, align 8
  %1 = load i64, ptr %__n.addr, align 8
  %add.ptr = getelementptr inbounds %"class.rocksdb::ThreadPoolImpl", ptr %0, i64 %1
  ret ptr %add.ptr
}

; Function Attrs: mustprogress uwtable
define internal noundef i32 @_ZN7rocksdb12_GLOBAL__N_18PosixEnv14ReleaseThreadsEiNS_3Env8PriorityE(ptr noundef nonnull align 8 dereferenceable(200) %this, i32 noundef %threads_to_released, i32 noundef %pri) unnamed_addr #2 align 2 {
entry:
  %this.addr = alloca ptr, align 8
  %threads_to_released.addr = alloca i32, align 4
  %pri.addr = alloca i32, align 4
  store ptr %this, ptr %this.addr, align 8
  store i32 %threads_to_released, ptr %threads_to_released.addr, align 4
  store i32 %pri, ptr %pri.addr, align 4
  %this1 = load ptr, ptr %this.addr, align 8
  %thread_pools_ = getelementptr inbounds %"class.rocksdb::(anonymous namespace)::PosixEnv", ptr %this1, i32 0, i32 5
  %0 = load ptr, ptr %thread_pools_, align 8
  %1 = load i32, ptr %pri.addr, align 4
  %conv = zext i32 %1 to i64
  %call = call noundef nonnull align 8 dereferenceable(16) ptr @_ZNSt6vectorIN7rocksdb14ThreadPoolImplESaIS1_EEixEm(ptr noundef nonnull align 8 dereferenceable(24) %0, i64 noundef %conv) #4
  %2 = load i32, ptr %threads_to_released.addr, align 4
  %vtable = load ptr, ptr %call, align 8
  %vfn = getelementptr inbounds ptr, ptr %vtable, i64 10
  %3 = load ptr, ptr %vfn, align 8
  %call2 = call noundef i32 %3(ptr noundef nonnull align 8 dereferenceable(16) %call, i32 noundef %2)
  ret i32 %call2
}